target datalayout = "e-m:e-p270:32:32-p271:32:32-p272:64:64-i64:64-i128:128-f80:128-n8:16:32:64-S128"
target triple = "x86_64-pc-linux-gnu"

%struct.mbedtls_sha3_context = type { [25 x i64], i32, i16, i16 }

@.str.8 = private unnamed_addr constant [20 x i8] c"  %s long KAT test \00", align 1
@.str.9 = private unnamed_addr constant [15 x i8] c"setup failed\0A \00", align 1
@.str.10 = private unnamed_addr constant [23 x i8] c"update error code: %i\0A\00", align 1
@.str.11 = private unnamed_addr constant [23 x i8] c"finish error code: %d\0A\00", align 1
@long_kat_hash_sha3_224 = internal constant [28 x i8] c"\D6\935\B93%\19.Qj\91.m\19\A1\\\B5\1Cn\D5\C1RC\E7\A7\FDe<", align 16
@long_kat_hash_sha3_256 = internal constant [32 x i8] c"\\\88u\AEGJ64\BAO\D5^\C8[\FF\D6a\F3*\CAu\C6\D6\99\D0\CD\CBl\11X\91\C1", align 16
@long_kat_hash_sha3_384 = internal constant [48 x i8] c"\EE\E9\E2Mx\C1\85S7\984Q\DF\97\C8\AD\9E\ED\F2V\C63O\8E\94\8D%-^\0Ev\84z\A0wM\DB\90\A8B\19\0D,U\8BK\83@", align 16
@long_kat_hash_sha3_512 = internal constant [64 x i8] c"<:\87m\A1@4\AB`b|\07{\B9\8F~\12\0A*Sp!-\FF\B38Z\18\D4\F3\88Y\ED1\1D\0A\9DQA\CE\9C\C5\C6n\E6\89\B2f\A8\AA\18\AC\E8(*\0E\0D\B5\96\C9\0B\0A{\87", align 16
@.str.12 = private unnamed_addr constant [8 x i8] c"failed\0A\00", align 1
@.str.13 = private unnamed_addr constant [8 x i8] c"passed\0A\00", align 1

; Function Attrs: nounwind uwtable
define hidden void @mbedtls_sha3_free(ptr noundef %0) #0 {
  %2 = alloca ptr, align 8
  store ptr %0, ptr %2, align 8, !tbaa !3
  %3 = load ptr, ptr %2, align 8, !tbaa !3
  %4 = icmp eq ptr %3, null
  br i1 %4, label %5, label %6

5:                                                ; preds = %1
  br label %8

6:                                                ; preds = %1
  %7 = load ptr, ptr %2, align 8, !tbaa !3
  call void @mbedtls_platform_zeroize(ptr noundef %7, i64 noundef 208)
  br label %8

8:                                                ; preds = %6, %5
  ret void
}

; Function Attrs: nounwind uwtable
define hidden i32 @mbedtls_sha3_starts(ptr noundef %0, i32 noundef %1) #0 {
  %3 = alloca i32, align 4
  %4 = alloca ptr, align 8
  %5 = alloca i32, align 4
  store ptr %0, ptr %4, align 8, !tbaa !3
  store i32 %1, ptr %5, align 4, !tbaa !9
  %6 = load i32, ptr %5, align 4, !tbaa !9
  switch i32 %6, label %27 [
    i32 1, label %7
    i32 2, label %12
    i32 3, label %17
    i32 4, label %22
  ]

7:                                                ; preds = %2
  %8 = load ptr, ptr %4, align 8, !tbaa !3
  %9 = getelementptr inbounds nuw %struct.mbedtls_sha3_context, ptr %8, i32 0, i32 2
  store i16 28, ptr %9, align 4, !tbaa !13
  %10 = load ptr, ptr %4, align 8, !tbaa !3
  %11 = getelementptr inbounds nuw %struct.mbedtls_sha3_context, ptr %10, i32 0, i32 3
  store i16 144, ptr %11, align 2, !tbaa !15
  br label %28

12:                                               ; preds = %2
  %13 = load ptr, ptr %4, align 8, !tbaa !3
  %14 = getelementptr inbounds nuw %struct.mbedtls_sha3_context, ptr %13, i32 0, i32 2
  store i16 32, ptr %14, align 4, !tbaa !13
  %15 = load ptr, ptr %4, align 8, !tbaa !3
  %16 = getelementptr inbounds nuw %struct.mbedtls_sha3_context, ptr %15, i32 0, i32 3
  store i16 136, ptr %16, align 2, !tbaa !15
  br label %28

17:                                               ; preds = %2
  %18 = load ptr, ptr %4, align 8, !tbaa !3
  %19 = getelementptr inbounds nuw %struct.mbedtls_sha3_context, ptr %18, i32 0, i32 2
  store i16 48, ptr %19, align 4, !tbaa !13
  %20 = load ptr, ptr %4, align 8, !tbaa !3
  %21 = getelementptr inbounds nuw %struct.mbedtls_sha3_context, ptr %20, i32 0, i32 3
  store i16 104, ptr %21, align 2, !tbaa !15
  br label %28

22:                                               ; preds = %2
  %23 = load ptr, ptr %4, align 8, !tbaa !3
  %24 = getelementptr inbounds nuw %struct.mbedtls_sha3_context, ptr %23, i32 0, i32 2
  store i16 64, ptr %24, align 4, !tbaa !13
  %25 = load ptr, ptr %4, align 8, !tbaa !3
  %26 = getelementptr inbounds nuw %struct.mbedtls_sha3_context, ptr %25, i32 0, i32 3
  store i16 72, ptr %26, align 2, !tbaa !15
  br label %28

27:                                               ; preds = %2
  store i32 -118, ptr %3, align 4
  br label %34

28:                                               ; preds = %22, %17, %12, %7
  %29 = load ptr, ptr %4, align 8, !tbaa !3
  %30 = getelementptr inbounds nuw %struct.mbedtls_sha3_context, ptr %29, i32 0, i32 0
  %31 = getelementptr inbounds [25 x i64], ptr %30, i64 0, i64 0
  call void @llvm.memset.p0.i64(ptr align 8 %31, i8 0, i64 200, i1 false)
  %32 = load ptr, ptr %4, align 8, !tbaa !3
  %33 = getelementptr inbounds nuw %struct.mbedtls_sha3_context, ptr %32, i32 0, i32 1
  store i32 0, ptr %33, align 8, !tbaa !16
  store i32 0, ptr %3, align 4
  br label %34

34:                                               ; preds = %28, %27
  %35 = load i32, ptr %3, align 4
  ret i32 %35
}

; Function Attrs: nounwind uwtable
define hidden void @mbedtls_sha3_init(ptr noundef %0) #0 {
  %2 = alloca ptr, align 8
  store ptr %0, ptr %2, align 8, !tbaa !3
  %3 = load ptr, ptr %2, align 8, !tbaa !3
  call void @llvm.memset.p0.i64(ptr align 8 %3, i8 0, i64 208, i1 false)
  ret void
}

; Function Attrs: nounwind uwtable
define internal i32 @mbedtls_sha3_long_kat_test(i32 noundef %0, ptr noundef %1, i32 noundef %2) #0 {
  %4 = alloca i32, align 4
  %5 = alloca i32, align 4
  %6 = alloca ptr, align 8
  %7 = alloca i32, align 4
  %8 = alloca %struct.mbedtls_sha3_context, align 8
  %9 = alloca [1000 x i8], align 16
  %10 = alloca [64 x i8], align 16
  %11 = alloca i32, align 4
  %12 = alloca i32, align 4
  %13 = alloca i32, align 4
  store i32 %0, ptr %5, align 4, !tbaa !9
  store ptr %1, ptr %6, align 8, !tbaa !17
  store i32 %2, ptr %7, align 4, !tbaa !9
  call void @llvm.lifetime.start.p0(i64 208, ptr %8) #7
  call void @llvm.lifetime.start.p0(i64 1000, ptr %9) #7
  call void @llvm.lifetime.start.p0(i64 64, ptr %10) #7
  call void @llvm.lifetime.start.p0(i64 4, ptr %11) #7
  store i32 0, ptr %11, align 4, !tbaa !9
  %14 = getelementptr inbounds [1000 x i8], ptr %9, i64 0, i64 0
  call void @llvm.memset.p0.i64(ptr align 16 %14, i8 97, i64 1000, i1 false)
  %15 = load i32, ptr %5, align 4, !tbaa !9
  %16 = icmp ne i32 %15, 0
  br i1 %16, label %17, label %20

17:                                               ; preds = %3
  %18 = load ptr, ptr %6, align 8, !tbaa !17
  %19 = call i32 (ptr, ...) @printf(ptr noundef @.str.8, ptr noundef %18)
  br label %20

20:                                               ; preds = %17, %3
  call void @mbedtls_sha3_init(ptr noundef %8)
  %21 = load i32, ptr %7, align 4, !tbaa !9
  %22 = call i32 @mbedtls_sha3_starts(ptr noundef %8, i32 noundef %21)
  store i32 %22, ptr %11, align 4, !tbaa !9
  %23 = load i32, ptr %11, align 4, !tbaa !9
  %24 = icmp ne i32 %23, 0
  br i1 %24, label %25, label %31

25:                                               ; preds = %20
  %26 = load i32, ptr %5, align 4, !tbaa !9
  %27 = icmp ne i32 %26, 0
  br i1 %27, label %28, label %30

28:                                               ; preds = %25
  %29 = call i32 (ptr, ...) @printf(ptr noundef @.str.9)
  br label %30

30:                                               ; preds = %28, %25
  br label %31

31:                                               ; preds = %30, %20
  call void @llvm.lifetime.start.p0(i64 4, ptr %12) #7
  store i32 0, ptr %12, align 4, !tbaa !9
  br label %32

32:                                               ; preds = %49, %31
  %33 = load i32, ptr %12, align 4, !tbaa !9
  %34 = icmp slt i32 %33, 1000
  br i1 %34, label %36, label %35

35:                                               ; preds = %32
  store i32 2, ptr %13, align 4
  br label %52

36:                                               ; preds = %32
  %37 = getelementptr inbounds [1000 x i8], ptr %9, i64 0, i64 0
  %38 = call i32 @mbedtls_sha3_update(ptr noundef %8, ptr noundef %37, i64 noundef 1000)
  store i32 %38, ptr %11, align 4, !tbaa !9
  %39 = load i32, ptr %11, align 4, !tbaa !9
  %40 = icmp ne i32 %39, 0
  br i1 %40, label %41, label %48

41:                                               ; preds = %36
  %42 = load i32, ptr %5, align 4, !tbaa !9
  %43 = icmp ne i32 %42, 0
  br i1 %43, label %44, label %47

44:                                               ; preds = %41
  %45 = load i32, ptr %11, align 4, !tbaa !9
  %46 = call i32 (ptr, ...) @printf(ptr noundef @.str.10, i32 noundef %45)
  br label %47

47:                                               ; preds = %44, %41
  store i32 5, ptr %13, align 4
  br label %52

48:                                               ; preds = %36
  br label %49

49:                                               ; preds = %48
  %50 = load i32, ptr %12, align 4, !tbaa !9
  %51 = add nsw i32 %50, 1
  store i32 %51, ptr %12, align 4, !tbaa !9
  br label %32, !llvm.loop !33

52:                                               ; preds = %47, %35
  call void @llvm.lifetime.end.p0(i64 4, ptr %12) #7
  %53 = load i32, ptr %13, align 4
  switch i32 %53, label %98 [
    i32 2, label %54
    i32 5, label %96
  ]

54:                                               ; preds = %52
  %55 = getelementptr inbounds [64 x i8], ptr %10, i64 0, i64 0
  %56 = call i32 @mbedtls_sha3_finish(ptr noundef %8, ptr noundef %55, i64 noundef 64)
  store i32 %56, ptr %11, align 4, !tbaa !9
  %57 = load i32, ptr %11, align 4, !tbaa !9
  %58 = icmp ne i32 %57, 0
  br i1 %58, label %59, label %66

59:                                               ; preds = %54
  %60 = load i32, ptr %5, align 4, !tbaa !9
  %61 = icmp ne i32 %60, 0
  br i1 %61, label %62, label %65

62:                                               ; preds = %59
  %63 = load i32, ptr %11, align 4, !tbaa !9
  %64 = call i32 (ptr, ...) @printf(ptr noundef @.str.11, i32 noundef %63)
  br label %65

65:                                               ; preds = %62, %59
  br label %96

66:                                               ; preds = %54
  %67 = load i32, ptr %7, align 4, !tbaa !9
  switch i32 %67, label %80 [
    i32 1, label %68
    i32 2, label %71
    i32 3, label %74
    i32 4, label %77
  ]

68:                                               ; preds = %66
  %69 = getelementptr inbounds [64 x i8], ptr %10, i64 0, i64 0
  %70 = call i32 @memcmp(ptr noundef %69, ptr noundef @long_kat_hash_sha3_224, i64 noundef 28) #8
  store i32 %70, ptr %11, align 4, !tbaa !9
  br label %81

71:                                               ; preds = %66
  %72 = getelementptr inbounds [64 x i8], ptr %10, i64 0, i64 0
  %73 = call i32 @memcmp(ptr noundef %72, ptr noundef @long_kat_hash_sha3_256, i64 noundef 32) #8
  store i32 %73, ptr %11, align 4, !tbaa !9
  br label %81

74:                                               ; preds = %66
  %75 = getelementptr inbounds [64 x i8], ptr %10, i64 0, i64 0
  %76 = call i32 @memcmp(ptr noundef %75, ptr noundef @long_kat_hash_sha3_384, i64 noundef 48) #8
  store i32 %76, ptr %11, align 4, !tbaa !9
  br label %81

77:                                               ; preds = %66
  %78 = getelementptr inbounds [64 x i8], ptr %10, i64 0, i64 0
  %79 = call i32 @memcmp(ptr noundef %78, ptr noundef @long_kat_hash_sha3_512, i64 noundef 64) #8
  store i32 %79, ptr %11, align 4, !tbaa !9
  br label %81

80:                                               ; preds = %66
  br label %81

81:                                               ; preds = %80, %77, %74, %71, %68
  %82 = load i32, ptr %11, align 4, !tbaa !9
  %83 = icmp ne i32 %82, 0
  br i1 %83, label %84, label %90

84:                                               ; preds = %81
  %85 = load i32, ptr %5, align 4, !tbaa !9
  %86 = icmp ne i32 %85, 0
  br i1 %86, label %87, label %89

87:                                               ; preds = %84
  %88 = call i32 (ptr, ...) @printf(ptr noundef @.str.12)
  br label %89

89:                                               ; preds = %87, %84
  br label %90

90:                                               ; preds = %89, %81
  %91 = load i32, ptr %5, align 4, !tbaa !9
  %92 = icmp ne i32 %91, 0
  br i1 %92, label %93, label %95

93:                                               ; preds = %90
  %94 = call i32 (ptr, ...) @printf(ptr noundef @.str.13)
  br label %95

95:                                               ; preds = %93, %90
  br label %96

96:                                               ; preds = %95, %52, %65
  call void @mbedtls_sha3_free(ptr noundef %8)
  %97 = load i32, ptr %11, align 4, !tbaa !9
  store i32 %97, ptr %4, align 4
  store i32 1, ptr %13, align 4
  br label %98

98:                                               ; preds = %96, %52
  call void @llvm.lifetime.end.p0(i64 4, ptr %11) #7
  call void @llvm.lifetime.end.p0(i64 64, ptr %10) #7
  call void @llvm.lifetime.end.p0(i64 1000, ptr %9) #7
  call void @llvm.lifetime.end.p0(i64 208, ptr %8) #7
  %99 = load i32, ptr %4, align 4
  ret i32 %99
}