; Function Attrs: nounwind uwtable
define internal fastcc i32 @mbedtls_sha3_long_kat_test(i32 noundef %0, ptr noundef %1, i32 noundef range(i32 1, 5) %2) unnamed_addr #2 {
  %4 = alloca %struct.mbedtls_sha3_context, align 8
  %5 = alloca [1000 x i8], align 16
  %6 = alloca [64 x i8], align 16
  call void @llvm.lifetime.start.p0(i64 208, ptr nonnull %4) #12
  call void @llvm.lifetime.start.p0(i64 1000, ptr nonnull %5) #12
  call void @llvm.lifetime.start.p0(i64 64, ptr nonnull %6) #12
  call void @llvm.memset.p0.i64(ptr noundef nonnull align 16 dereferenceable(1000) %5, i8 97, i64 1000, i1 false)
  %7 = icmp ne i32 %0, 0
  br i1 %7, label %8, label %switch.lookup

8:                                                ; preds = %3
  %9 = tail call i32 (ptr, ...) @printf(ptr noundef nonnull dereferenceable(1) @.str.8, ptr noundef %1)
  br label %switch.lookup

switch.lookup:                                    ; preds = %8, %3
  %switch.tableidx = add nsw i32 %2, -1
  %switch.cast = zext i32 %switch.tableidx to i64
  %switch.shiftamt = shl nuw nsw i64 %switch.cast, 4
  %switch.downshift = lshr i64 18014604670009372, %switch.shiftamt
  %switch.masked = trunc i64 %switch.downshift to i16
  %switch.cast35 = zext i32 %switch.tableidx to i64
  %switch.shiftamt36 = shl nuw nsw i64 %switch.cast35, 4
  %switch.downshift37 = lshr i64 20266645008679056, %switch.shiftamt36
  %switch.masked38 = trunc i64 %switch.downshift37 to i16
  %10 = getelementptr inbounds nuw i8, ptr %4, i64 204
  store i16 %switch.masked, ptr %10, align 4, !tbaa !11
  %11 = getelementptr inbounds nuw i8, ptr %4, i64 206
  store i16 %switch.masked38, ptr %11, align 2, !tbaa !13
  call void @llvm.memset.p0.i64(ptr noundef nonnull align 8 dereferenceable(204) %4, i8 0, i64 204, i1 false)
  br label %12

default.unreachable34:                            ; preds = %20
  unreachable

12:                                               ; preds = %switch.lookup, %12
  %.02233 = phi i32 [ 0, %switch.lookup ], [ %14, %12 ]
  %13 = call i32 @mbedtls_sha3_update(ptr noundef nonnull %4, ptr noundef nonnull %5, i64 noundef 1000)
  %14 = add nuw nsw i32 %.02233, 1
  %exitcond.not = icmp eq i32 %14, 1000
  br i1 %exitcond.not, label %15, label %12, !llvm.loop !27

15:                                               ; preds = %12
  %16 = call i32 @mbedtls_sha3_finish(ptr noundef nonnull %4, ptr noundef nonnull %6, i64 noundef 64)
  %.not = icmp eq i32 %16, 0
  br i1 %.not, label %20, label %17

17:                                               ; preds = %15
  br i1 %7, label %18, label %33

18:                                               ; preds = %17
  %19 = call i32 (ptr, ...) @printf(ptr noundef nonnull dereferenceable(1) @.str.11, i32 noundef %16)
  br label %33

20:                                               ; preds = %15
  switch i32 %2, label %default.unreachable34 [
    i32 1, label %21
    i32 2, label %23
    i32 3, label %25
    i32 4, label %27
  ]

21:                                               ; preds = %20
  %22 = call i32 @memcmp(ptr noundef nonnull dereferenceable(28) %6, ptr noundef nonnull dereferenceable(28) @long_kat_hash_sha3_224, i64 noundef 28) #13
  br label %29

23:                                               ; preds = %20
  %24 = call i32 @memcmp(ptr noundef nonnull dereferenceable(32) %6, ptr noundef nonnull dereferenceable(32) @long_kat_hash_sha3_256, i64 noundef 32) #13
  br label %29

25:                                               ; preds = %20
  %26 = call i32 @memcmp(ptr noundef nonnull dereferenceable(48) %6, ptr noundef nonnull dereferenceable(48) @long_kat_hash_sha3_384, i64 noundef 48) #13
  br label %29

27:                                               ; preds = %20
  %28 = call i32 @memcmp(ptr noundef nonnull dereferenceable(64) %6, ptr noundef nonnull dereferenceable(64) @long_kat_hash_sha3_512, i64 noundef 64) #13
  br label %29

29:                                               ; preds = %27, %25, %23, %21
  %.3 = phi i32 [ %28, %27 ], [ %26, %25 ], [ %24, %23 ], [ %22, %21 ]
  %30 = icmp ne i32 %.3, 0
  %or.cond3 = and i1 %7, %30
  br i1 %or.cond3, label %.thread, label %31

.thread:                                          ; preds = %29
  %puts = call i32 @puts(ptr nonnull dereferenceable(1) @str)
  br label %32

31:                                               ; preds = %29
  br i1 %7, label %32, label %33

32:                                               ; preds = %.thread, %31
  %puts29 = call i32 @puts(ptr nonnull dereferenceable(1) @str.1)
  br label %33

33:                                               ; preds = %31, %32, %17, %18
  %.2 = phi i32 [ %16, %18 ], [ %16, %17 ], [ %.3, %32 ], [ %.3, %31 ]
  call void @mbedtls_platform_zeroize(ptr noundef nonnull %4, i64 noundef 208) #12
  call void @llvm.lifetime.end.p0(i64 64, ptr nonnull %6) #12
  call void @llvm.lifetime.end.p0(i64 1000, ptr nonnull %5) #12
  call void @llvm.lifetime.end.p0(i64 208, ptr nonnull %4) #12
  ret i32 %.2
}